target datalayout = "e-m:e-p270:32:32-p271:32:32-p272:64:64-i64:64-i128:128-f80:128-n8:16:32:64-S128"
target triple = "x86_64-pc-linux-gnu"

%"class.cv::Matx" = type { [9 x double] }
%"class.cv::Matx.6" = type { [3 x double] }

; Function Attrs: inlinehint mustprogress nounwind uwtable
define linkonce_odr hidden void @_ZN2cv4MatxIdLi3ELi3EEC2Ev(ptr noundef nonnull align 8 dereferenceable(72) %0) unnamed_addr #8 comdat align 2 {
  %2 = alloca ptr, align 8
  %3 = alloca i32, align 4
  store ptr %0, ptr %2, align 8, !tbaa !54
  %4 = load ptr, ptr %2, align 8
  call void @llvm.lifetime.start.p0(i64 4, ptr %3) #3
  store i32 0, ptr %3, align 4, !tbaa !17
  br label %5

5:                                                ; preds = %14, %1
  %6 = load i32, ptr %3, align 4, !tbaa !17
  %7 = icmp slt i32 %6, 9
  br i1 %7, label %9, label %8

8:                                                ; preds = %5
  call void @llvm.lifetime.end.p0(i64 4, ptr %3) #3
  br label %17

9:                                                ; preds = %5
  %10 = getelementptr inbounds nuw %"class.cv::Matx", ptr %4, i32 0, i32 0
  %11 = load i32, ptr %3, align 4, !tbaa !17
  %12 = sext i32 %11 to i64
  %13 = getelementptr inbounds [9 x double], ptr %10, i64 0, i64 %12
  store double 0.000000e+00, ptr %13, align 8, !tbaa !37
  br label %14

14:                                               ; preds = %9
  %15 = load i32, ptr %3, align 4, !tbaa !17
  %16 = add nsw i32 %15, 1
  store i32 %16, ptr %3, align 4, !tbaa !17
  br label %5, !llvm.loop !56

17:                                               ; preds = %8
  ret void
}

; Function Attrs: inlinehint mustprogress uwtable
define linkonce_odr hidden void @_ZN2cv4MatxIdLi3ELi3EE3allEd(ptr dead_on_unwind noalias writable sret(%"class.cv::Matx") align 8 %0, double noundef %1) #7 comdat align 2 {
  %3 = alloca double, align 8
  %4 = alloca i32, align 4
  store double %1, ptr %3, align 8, !tbaa !37
  call void @_ZN2cv4MatxIdLi3ELi3EEC2Ev(ptr noundef nonnull align 8 dereferenceable(72) %0)
  call void @llvm.lifetime.start.p0(i64 4, ptr %4) #3
  store i32 0, ptr %4, align 4, !tbaa !17
  br label %5

5:                                                ; preds = %15, %2
  %6 = load i32, ptr %4, align 4, !tbaa !17
  %7 = icmp slt i32 %6, 9
  br i1 %7, label %9, label %8

8:                                                ; preds = %5
  call void @llvm.lifetime.end.p0(i64 4, ptr %4) #3
  br label %18

9:                                                ; preds = %5
  %10 = load double, ptr %3, align 8, !tbaa !37
  %11 = getelementptr inbounds nuw %"class.cv::Matx", ptr %0, i32 0, i32 0
  %12 = load i32, ptr %4, align 4, !tbaa !17
  %13 = sext i32 %12 to i64
  %14 = getelementptr inbounds [9 x double], ptr %11, i64 0, i64 %13
  store double %10, ptr %14, align 8, !tbaa !37
  br label %15

15:                                               ; preds = %9
  %16 = load i32, ptr %4, align 4, !tbaa !17
  %17 = add nsw i32 %16, 1
  store i32 %17, ptr %4, align 4, !tbaa !17
  br label %5, !llvm.loop !162

18:                                               ; preds = %8
  ret void
}

; Function Attrs: inlinehint mustprogress nounwind uwtable
define linkonce_odr hidden noundef nonnull align 8 dereferenceable(8) ptr @_ZN2cv4MatxIdLi3ELi3EEclEii(ptr noundef nonnull align 8 dereferenceable(72) %0, i32 noundef %1, i32 noundef %2) #8 comdat align 2 {
  %4 = alloca ptr, align 8
  %5 = alloca i32, align 4
  %6 = alloca i32, align 4
  store ptr %0, ptr %4, align 8, !tbaa !54
  store i32 %1, ptr %5, align 4, !tbaa !17
  store i32 %2, ptr %6, align 4, !tbaa !17
  %7 = load ptr, ptr %4, align 8
  %8 = getelementptr inbounds nuw %"class.cv::Matx", ptr %7, i32 0, i32 0
  %9 = load i32, ptr %5, align 4, !tbaa !17
  %10 = mul nsw i32 %9, 3
  %11 = load i32, ptr %6, align 4, !tbaa !17
  %12 = add nsw i32 %10, %11
  %13 = sext i32 %12 to i64
  %14 = getelementptr inbounds [9 x double], ptr %8, i64 0, i64 %13
  ret ptr %14
}

; Function Attrs: inlinehint mustprogress uwtable
define linkonce_odr hidden void @_ZN2cv4MatxIdLi3ELi3EE5zerosEv(ptr dead_on_unwind noalias writable sret(%"class.cv::Matx") align 8 %0) #7 comdat align 2 {
  call void @_ZN2cv4MatxIdLi3ELi3EE3allEd(ptr dead_on_unwind writable sret(%"class.cv::Matx") align 8 %0, double noundef 0.000000e+00)
  ret void
}

; Function Attrs: mustprogress nounwind uwtable
define linkonce_odr hidden noundef float @_ZNSt14numeric_limitsIfE7epsilonEv() #4 comdat align 2 {
  ret float 0x3E80000000000000
}

; Function Attrs: inlinehint mustprogress nounwind uwtable
define linkonce_odr noundef double @_ZSt3absd(double noundef %0) #8 comdat {
  %2 = alloca double, align 8
  store double %0, ptr %2, align 8, !tbaa !37
  %3 = load double, ptr %2, align 8, !tbaa !37
  %4 = call double @llvm.fabs.f64(double %3)
  ret double %4
}

; Function Attrs: inlinehint mustprogress nounwind uwtable
define linkonce_odr hidden noundef nonnull align 8 dereferenceable(8) ptr @_ZNK2cv4MatxIdLi3ELi1EEclEi(ptr noundef nonnull align 8 dereferenceable(24) %0, i32 noundef %1) #8 comdat align 2 {
  %3 = alloca ptr, align 8
  %4 = alloca i32, align 4
  store ptr %0, ptr %3, align 8, !tbaa !99
  store i32 %1, ptr %4, align 4, !tbaa !17
  %5 = load ptr, ptr %3, align 8
  %6 = getelementptr inbounds nuw %"class.cv::Matx.6", ptr %5, i32 0, i32 0
  %7 = load i32, ptr %4, align 4, !tbaa !17
  %8 = sext i32 %7 to i64
  %9 = getelementptr inbounds [3 x double], ptr %6, i64 0, i64 %8
  ret ptr %9
}

; Function Attrs: mustprogress uwtable
define hidden void @_ZN2cv4IPPE10PoseSolver15rotateVec2ZAxisERKNS_4MatxIdLi3ELi1EEERNS2_IdLi3ELi3EEE(ptr noundef nonnull align 8 dereferenceable(8) %0, ptr noundef nonnull align 8 dereferenceable(24) %1, ptr noundef nonnull align 8 dereferenceable(72) %2) #5 align 2 {
  %4 = alloca ptr, align 8
  %5 = alloca ptr, align 8
  %6 = alloca ptr, align 8
  %7 = alloca double, align 8
  %8 = alloca double, align 8
  %9 = alloca double, align 8
  %10 = alloca double, align 8
  %11 = alloca double, align 8
  %12 = alloca %"class.cv::Matx", align 8
  %13 = alloca double, align 8
  %14 = alloca double, align 8
  %15 = alloca double, align 8
  %16 = alloca double, align 8
  store ptr %0, ptr %4, align 8, !tbaa !3
  store ptr %1, ptr %5, align 8, !tbaa !99
  store ptr %2, ptr %6, align 8, !tbaa !54
  call void @llvm.lifetime.start.p0(i64 8, ptr %7) #3
  %17 = load ptr, ptr %5, align 8, !tbaa !99
  %18 = call noundef nonnull align 8 dereferenceable(8) ptr @_ZNK2cv4MatxIdLi3ELi1EEclEi(ptr noundef nonnull align 8 dereferenceable(24) %17, i32 noundef 0)
  %19 = load double, ptr %18, align 8, !tbaa !37
  store double %19, ptr %7, align 8, !tbaa !37
  call void @llvm.lifetime.start.p0(i64 8, ptr %8) #3
  %20 = load ptr, ptr %5, align 8, !tbaa !99
  %21 = call noundef nonnull align 8 dereferenceable(8) ptr @_ZNK2cv4MatxIdLi3ELi1EEclEi(ptr noundef nonnull align 8 dereferenceable(24) %20, i32 noundef 1)
  %22 = load double, ptr %21, align 8, !tbaa !37
  store double %22, ptr %8, align 8, !tbaa !37
  call void @llvm.lifetime.start.p0(i64 8, ptr %9) #3
  %23 = load ptr, ptr %5, align 8, !tbaa !99
  %24 = call noundef nonnull align 8 dereferenceable(8) ptr @_ZNK2cv4MatxIdLi3ELi1EEclEi(ptr noundef nonnull align 8 dereferenceable(24) %23, i32 noundef 2)
  %25 = load double, ptr %24, align 8, !tbaa !37
  store double %25, ptr %9, align 8, !tbaa !37
  call void @llvm.lifetime.start.p0(i64 8, ptr %10) #3
  %26 = load double, ptr %7, align 8, !tbaa !37
  %27 = load double, ptr %7, align 8, !tbaa !37
  %28 = load double, ptr %8, align 8, !tbaa !37
  %29 = load double, ptr %8, align 8, !tbaa !37
  %30 = fmul double %28, %29
  %31 = call double @llvm.fmuladd.f64(double %26, double %27, double %30)
  %32 = load double, ptr %9, align 8, !tbaa !37
  %33 = load double, ptr %9, align 8, !tbaa !37
  %34 = call double @llvm.fmuladd.f64(double %32, double %33, double %31)
  %35 = call double @sqrt(double noundef %34) #3, !tbaa !17
  store double %35, ptr %10, align 8, !tbaa !37
  %36 = load double, ptr %7, align 8, !tbaa !37
  %37 = load double, ptr %10, align 8, !tbaa !37
  %38 = fdiv double %36, %37
  store double %38, ptr %7, align 8, !tbaa !37
  %39 = load double, ptr %8, align 8, !tbaa !37
  %40 = load double, ptr %10, align 8, !tbaa !37
  %41 = fdiv double %39, %40
  store double %41, ptr %8, align 8, !tbaa !37
  %42 = load double, ptr %9, align 8, !tbaa !37
  %43 = load double, ptr %10, align 8, !tbaa !37
  %44 = fdiv double %42, %43
  store double %44, ptr %9, align 8, !tbaa !37
  call void @llvm.lifetime.start.p0(i64 8, ptr %11) #3
  %45 = load double, ptr %9, align 8, !tbaa !37
  store double %45, ptr %11, align 8, !tbaa !37
  %46 = load double, ptr %11, align 8, !tbaa !37
  %47 = fadd double 1.000000e+00, %46
  %48 = call noundef double @_ZSt3absd(double noundef %47)
  %49 = call noundef float @_ZNSt14numeric_limitsIfE7epsilonEv() #3
  %50 = fpext float %49 to double
  %51 = fcmp olt double %48, %50
  br i1 %51, label %52, label %60

52:                                               ; preds = %3
  call void @llvm.lifetime.start.p0(i64 72, ptr %12) #3
  call void @_ZN2cv4MatxIdLi3ELi3EE5zerosEv(ptr dead_on_unwind writable sret(%"class.cv::Matx") align 8 %12)
  %53 = load ptr, ptr %6, align 8, !tbaa !54
  call void @llvm.memcpy.p0.p0.i64(ptr align 8 %53, ptr align 8 %12, i64 72, i1 false), !tbaa.struct !61
  call void @llvm.lifetime.end.p0(i64 72, ptr %12) #3
  %54 = load ptr, ptr %6, align 8, !tbaa !54
  %55 = call noundef nonnull align 8 dereferenceable(8) ptr @_ZN2cv4MatxIdLi3ELi3EEclEii(ptr noundef nonnull align 8 dereferenceable(72) %54, i32 noundef 0, i32 noundef 0)
  store double 1.000000e+00, ptr %55, align 8, !tbaa !37
  %56 = load ptr, ptr %6, align 8, !tbaa !54
  %57 = call noundef nonnull align 8 dereferenceable(8) ptr @_ZN2cv4MatxIdLi3ELi3EEclEii(ptr noundef nonnull align 8 dereferenceable(72) %56, i32 noundef 1, i32 noundef 1)
  store double 1.000000e+00, ptr %57, align 8, !tbaa !37
  %58 = load ptr, ptr %6, align 8, !tbaa !54
  %59 = call noundef nonnull align 8 dereferenceable(8) ptr @_ZN2cv4MatxIdLi3ELi3EEclEii(ptr noundef nonnull align 8 dereferenceable(72) %58, i32 noundef 2, i32 noundef 2)
  store double -1.000000e+00, ptr %59, align 8, !tbaa !37
  br label %119

60:                                               ; preds = %3
  call void @llvm.lifetime.start.p0(i64 8, ptr %13) #3
  %61 = load double, ptr %11, align 8, !tbaa !37
  %62 = fadd double 1.000000e+00, %61
  %63 = fdiv double 1.000000e+00, %62
  store double %63, ptr %13, align 8, !tbaa !37
  call void @llvm.lifetime.start.p0(i64 8, ptr %14) #3
  %64 = load double, ptr %7, align 8, !tbaa !37
  %65 = load double, ptr %7, align 8, !tbaa !37
  %66 = fmul double %64, %65
  store double %66, ptr %14, align 8, !tbaa !37
  call void @llvm.lifetime.start.p0(i64 8, ptr %15) #3
  %67 = load double, ptr %8, align 8, !tbaa !37
  %68 = load double, ptr %8, align 8, !tbaa !37
  %69 = fmul double %67, %68
  store double %69, ptr %15, align 8, !tbaa !37
  call void @llvm.lifetime.start.p0(i64 8, ptr %16) #3
  %70 = load double, ptr %7, align 8, !tbaa !37
  %71 = load double, ptr %8, align 8, !tbaa !37
  %72 = fmul double %70, %71
  store double %72, ptr %16, align 8, !tbaa !37
  %73 = load double, ptr %14, align 8, !tbaa !37
  %74 = fneg double %73
  %75 = load double, ptr %13, align 8, !tbaa !37
  %76 = call double @llvm.fmuladd.f64(double %74, double %75, double 1.000000e+00)
  %77 = load ptr, ptr %6, align 8, !tbaa !54
  %78 = call noundef nonnull align 8 dereferenceable(8) ptr @_ZN2cv4MatxIdLi3ELi3EEclEii(ptr noundef nonnull align 8 dereferenceable(72) %77, i32 noundef 0, i32 noundef 0)
  store double %76, ptr %78, align 8, !tbaa !37
  %79 = load double, ptr %16, align 8, !tbaa !37
  %80 = fneg double %79
  %81 = load double, ptr %13, align 8, !tbaa !37
  %82 = fmul double %80, %81
  %83 = load ptr, ptr %6, align 8, !tbaa !54
  %84 = call noundef nonnull align 8 dereferenceable(8) ptr @_ZN2cv4MatxIdLi3ELi3EEclEii(ptr noundef nonnull align 8 dereferenceable(72) %83, i32 noundef 0, i32 noundef 1)
  store double %82, ptr %84, align 8, !tbaa !37
  %85 = load double, ptr %7, align 8, !tbaa !37
  %86 = fneg double %85
  %87 = load ptr, ptr %6, align 8, !tbaa !54
  %88 = call noundef nonnull align 8 dereferenceable(8) ptr @_ZN2cv4MatxIdLi3ELi3EEclEii(ptr noundef nonnull align 8 dereferenceable(72) %87, i32 noundef 0, i32 noundef 2)
  store double %86, ptr %88, align 8, !tbaa !37
  %89 = load double, ptr %16, align 8, !tbaa !37
  %90 = fneg double %89
  %91 = load double, ptr %13, align 8, !tbaa !37
  %92 = fmul double %90, %91
  %93 = load ptr, ptr %6, align 8, !tbaa !54
  %94 = call noundef nonnull align 8 dereferenceable(8) ptr @_ZN2cv4MatxIdLi3ELi3EEclEii(ptr noundef nonnull align 8 dereferenceable(72) %93, i32 noundef 1, i32 noundef 0)
  store double %92, ptr %94, align 8, !tbaa !37
  %95 = load double, ptr %15, align 8, !tbaa !37
  %96 = fneg double %95
  %97 = load double, ptr %13, align 8, !tbaa !37
  %98 = call double @llvm.fmuladd.f64(double %96, double %97, double 1.000000e+00)
  %99 = load ptr, ptr %6, align 8, !tbaa !54
  %100 = call noundef nonnull align 8 dereferenceable(8) ptr @_ZN2cv4MatxIdLi3ELi3EEclEii(ptr noundef nonnull align 8 dereferenceable(72) %99, i32 noundef 1, i32 noundef 1)
  store double %98, ptr %100, align 8, !tbaa !37
  %101 = load double, ptr %8, align 8, !tbaa !37
  %102 = fneg double %101
  %103 = load ptr, ptr %6, align 8, !tbaa !54
  %104 = call noundef nonnull align 8 dereferenceable(8) ptr @_ZN2cv4MatxIdLi3ELi3EEclEii(ptr noundef nonnull align 8 dereferenceable(72) %103, i32 noundef 1, i32 noundef 2)
  store double %102, ptr %104, align 8, !tbaa !37
  %105 = load double, ptr %7, align 8, !tbaa !37
  %106 = load ptr, ptr %6, align 8, !tbaa !54
  %107 = call noundef nonnull align 8 dereferenceable(8) ptr @_ZN2cv4MatxIdLi3ELi3EEclEii(ptr noundef nonnull align 8 dereferenceable(72) %106, i32 noundef 2, i32 noundef 0)
  store double %105, ptr %107, align 8, !tbaa !37
  %108 = load double, ptr %8, align 8, !tbaa !37
  %109 = load ptr, ptr %6, align 8, !tbaa !54
  %110 = call noundef nonnull align 8 dereferenceable(8) ptr @_ZN2cv4MatxIdLi3ELi3EEclEii(ptr noundef nonnull align 8 dereferenceable(72) %109, i32 noundef 2, i32 noundef 1)
  store double %108, ptr %110, align 8, !tbaa !37
  %111 = load double, ptr %14, align 8, !tbaa !37
  %112 = load double, ptr %15, align 8, !tbaa !37
  %113 = fadd double %111, %112
  %114 = load double, ptr %13, align 8, !tbaa !37
  %115 = fneg double %113
  %116 = call double @llvm.fmuladd.f64(double %115, double %114, double 1.000000e+00)
  %117 = load ptr, ptr %6, align 8, !tbaa !54
  %118 = call noundef nonnull align 8 dereferenceable(8) ptr @_ZN2cv4MatxIdLi3ELi3EEclEii(ptr noundef nonnull align 8 dereferenceable(72) %117, i32 noundef 2, i32 noundef 2)
  store double %116, ptr %118, align 8, !tbaa !37
  call void @llvm.lifetime.end.p0(i64 8, ptr %16) #3
  call void @llvm.lifetime.end.p0(i64 8, ptr %15) #3
  call void @llvm.lifetime.end.p0(i64 8, ptr %14) #3
  call void @llvm.lifetime.end.p0(i64 8, ptr %13) #3
  br label %119

119:                                              ; preds = %60, %52
  call void @llvm.lifetime.end.p0(i64 8, ptr %11) #3
  call void @llvm.lifetime.end.p0(i64 8, ptr %10) #3
  call void @llvm.lifetime.end.p0(i64 8, ptr %9) #3
  call void @llvm.lifetime.end.p0(i64 8, ptr %8) #3
  call void @llvm.lifetime.end.p0(i64 8, ptr %7) #3
  ret void
}