; Function Attrs: mustprogress nofree norecurse nosync nounwind willreturn memory(argmem: readwrite) uwtable
define hidden void @_ZN2cv4IPPE10PoseSolver15rotateVec2ZAxisERKNS_4MatxIdLi3ELi1EEERNS2_IdLi3ELi3EEE(ptr noundef nonnull readnone align 8 captures(none) dereferenceable(8) %0, ptr noundef nonnull readonly align 8 captures(none) dereferenceable(24) %1, ptr noundef nonnull writeonly align 8 captures(none) dereferenceable(72) initializes((0, 72)) %2) local_unnamed_addr #12 align 2 {
  %4 = load double, ptr %1, align 8, !tbaa !80
  %5 = getelementptr inbounds nuw i8, ptr %1, i64 8
  %6 = load double, ptr %5, align 8, !tbaa !80
  %7 = getelementptr inbounds nuw i8, ptr %1, i64 16
  %8 = load double, ptr %7, align 8, !tbaa !80
  %9 = fmul double %6, %6
  %10 = tail call double @llvm.fmuladd.f64(double %4, double %4, double %9)
  %11 = tail call double @llvm.fmuladd.f64(double %8, double %8, double %10)
  %sqrt = tail call double @llvm.sqrt.f64(double %11)
  %12 = fdiv double %8, %sqrt
  %13 = fadd double %12, 1.000000e+00
  %14 = tail call noundef double @llvm.fabs.f64(double %13)
  %15 = fcmp olt double %14, 0x3E80000000000000
  br i1 %15, label %16, label %18

16:                                               ; preds = %3
  %17 = getelementptr inbounds nuw i8, ptr %2, i64 8
  tail call void @llvm.memset.p0.i64(ptr noundef nonnull align 8 dereferenceable(56) %17, i8 0, i64 56, i1 false)
  br label %41

18:                                               ; preds = %3
  %19 = fdiv double %6, %sqrt
  %20 = fdiv double %4, %sqrt
  %21 = fdiv double 1.000000e+00, %13
  %22 = fmul double %20, %20
  %23 = fmul double %19, %19
  %24 = fneg double %22
  %25 = tail call double @llvm.fmuladd.f64(double %24, double %21, double 1.000000e+00)
  %26 = fneg double %19
  %27 = fmul double %20, %26
  %28 = fmul double %27, %21
  %29 = getelementptr inbounds nuw i8, ptr %2, i64 8
  store double %28, ptr %29, align 8, !tbaa !80
  %30 = fneg double %20
  %31 = getelementptr inbounds nuw i8, ptr %2, i64 16
  store double %30, ptr %31, align 8, !tbaa !80
  %32 = getelementptr inbounds nuw i8, ptr %2, i64 24
  store double %28, ptr %32, align 8, !tbaa !80
  %33 = fneg double %23
  %34 = tail call double @llvm.fmuladd.f64(double %33, double %21, double 1.000000e+00)
  %35 = getelementptr inbounds nuw i8, ptr %2, i64 40
  store double %26, ptr %35, align 8, !tbaa !80
  %36 = getelementptr inbounds nuw i8, ptr %2, i64 48
  store double %20, ptr %36, align 8, !tbaa !80
  %37 = getelementptr inbounds nuw i8, ptr %2, i64 56
  store double %19, ptr %37, align 8, !tbaa !80
  %38 = fadd double %22, %23
  %39 = fneg double %38
  %40 = tail call double @llvm.fmuladd.f64(double %39, double %21, double 1.000000e+00)
  br label %41

41:                                               ; preds = %18, %16
  %.sink53 = phi double [ 1.000000e+00, %16 ], [ %25, %18 ]
  %.sink52 = phi double [ 1.000000e+00, %16 ], [ %34, %18 ]
  %.sink = phi double [ -1.000000e+00, %16 ], [ %40, %18 ]
  store double %.sink53, ptr %2, align 8, !tbaa !80
  %42 = getelementptr inbounds nuw i8, ptr %2, i64 32
  store double %.sink52, ptr %42, align 8, !tbaa !80
  %43 = getelementptr inbounds nuw i8, ptr %2, i64 64
  store double %.sink, ptr %43, align 8, !tbaa !80
  ret void
}